; Function Attrs: mustprogress nofree norecurse nosync nounwind willreturn memory(read, inaccessiblemem: none) uwtable
define internal { i64, ptr } @_ZN17grpc_event_engine12experimental12_GLOBAL__N_123EndpointGetLocalAddressEP13grpc_endpoint(ptr noundef readonly captures(none) %0) #8 {
  %2 = getelementptr inbounds nuw i8, ptr %0, i64 8
  %3 = load ptr, ptr %2, align 8, !tbaa !61
  %4 = getelementptr i8, ptr %3, i64 128
  %.val = load ptr, ptr %4, align 8, !tbaa !28
  %5 = getelementptr i8, ptr %3, i64 136
  %.val2 = load i64, ptr %5, align 8, !tbaa !30
  %.fca.0.insert.i.i = insertvalue { i64, ptr } poison, i64 %.val2, 0
  %.fca.1.insert.i.i = insertvalue { i64, ptr } %.fca.0.insert.i.i, ptr %.val, 1
  ret { i64, ptr } %.fca.1.insert.i.i
}